; Function Attrs: nounwind uwtable
define range(i32 0, 2) i32 @wolfSSL_SESSION_up_ref(ptr noundef %0) local_unnamed_addr #0 {
  %2 = alloca i32, align 4
  call void @llvm.lifetime.start.p0(i64 4, ptr nonnull %2) #22
  %3 = tail call ptr @ClientSessionToSession(ptr noundef %0)
  %4 = icmp eq ptr %3, null
  br i1 %4, label %10, label %5

5:                                                ; preds = %1
  %6 = load i32, ptr %3, align 8, !tbaa !84
  %.not = icmp eq i32 %6, 3
  br i1 %.not, label %7, label %10

7:                                                ; preds = %5
  %8 = getelementptr inbounds nuw i8, ptr %3, i64 8
  call void @wolfSSL_RefWithMutexInc(ptr noundef nonnull %8, ptr noundef nonnull %2) #22
  %9 = load i32, ptr %2, align 4, !tbaa !3
  %.not5 = icmp eq i32 %9, 0
  %. = zext i1 %.not5 to i32
  br label %10

10:                                               ; preds = %7, %1, %5
  %.0 = phi i32 [ 0, %5 ], [ 0, %1 ], [ %., %7 ]
  call void @llvm.lifetime.end.p0(i64 4, ptr nonnull %2) #22
  ret i32 %.0
}